target datalayout = "e-m:e-p270:32:32-p271:32:32-p272:64:64-i64:64-i128:128-f80:128-n8:16:32:64-S128"
target triple = "x86_64-unknown-linux-gnu"

%"class.boost::detail::shared_count" = type { ptr }
%"class.boost::shared_ptr.27" = type { ptr, %"class.boost::detail::shared_count" }
%"class.QuantLib::OneFactorModel::ShortRateDynamics" = type { ptr, %"class.boost::shared_ptr.60" }
%"class.boost::shared_ptr.60" = type { ptr, %"class.boost::detail::shared_count" }

@.str.9 = private unnamed_addr constant [8 x i8] c"px != 0\00", align 1
@.str.10 = private unnamed_addr constant [102 x i8] c"generated/home/dtcxzyw/WorkSpace/SDK/vcpkg/installed/x64-linux/include/boost/smart_ptr/shared_ptr.hpp\00", align 1
@__PRETTY_FUNCTION__._ZNK5boost10shared_ptrIN8QuantLib19StochasticProcess1DEEptEv = private unnamed_addr constant [155 x i8] c"typename boost::detail::sp_member_access<T>::type boost::shared_ptr<QuantLib::StochasticProcess1D>::operator->() const [T = QuantLib::StochasticProcess1D]\00", align 1

; Function Attrs: mustprogress uwtable
define linkonce_odr noundef double @_ZNK8QuantLib20OneFactorAffineModel12discountBondEddd(ptr noundef nonnull align 8 dereferenceable(88) %this, double noundef %now, double noundef %maturity, double noundef %rate) #1 comdat align 2 {
entry:
  %this.addr = alloca ptr, align 8
  %now.addr = alloca double, align 8
  %maturity.addr = alloca double, align 8
  %rate.addr = alloca double, align 8
  store ptr %this, ptr %this.addr, align 8, !tbaa !3
  store double %now, ptr %now.addr, align 8, !tbaa !11
  store double %maturity, ptr %maturity.addr, align 8, !tbaa !11
  store double %rate, ptr %rate.addr, align 8, !tbaa !11
  %this1 = load ptr, ptr %this.addr, align 8
  %0 = load double, ptr %now.addr, align 8, !tbaa !11
  %1 = load double, ptr %maturity.addr, align 8, !tbaa !11
  %vtable = load ptr, ptr %this1, align 8, !tbaa !7
  %vfn = getelementptr inbounds ptr, ptr %vtable, i64 10
  %2 = load ptr, ptr %vfn, align 8
  %call = call noundef double %2(ptr noundef nonnull align 8 dereferenceable(88) %this1, double noundef %0, double noundef %1)
  %3 = load double, ptr %now.addr, align 8, !tbaa !11
  %4 = load double, ptr %maturity.addr, align 8, !tbaa !11
  %vtable2 = load ptr, ptr %this1, align 8, !tbaa !7
  %vfn3 = getelementptr inbounds ptr, ptr %vtable2, i64 11
  %5 = load ptr, ptr %vfn3, align 8
  %call4 = call noundef double %5(ptr noundef nonnull align 8 dereferenceable(88) %this1, double noundef %3, double noundef %4)
  %fneg = fneg double %call4
  %6 = load double, ptr %rate.addr, align 8, !tbaa !11
  %mul = fmul double %fneg, %6
  %call5 = call double @exp(double noundef %mul) #15, !tbaa !75
  %mul6 = fmul double %call, %call5
  ret double %mul6
}

; Function Attrs: mustprogress uwtable
define linkonce_odr noundef ptr @_ZNK5boost10shared_ptrIN8QuantLib19StochasticProcess1DEEptEv(ptr noundef nonnull align 8 dereferenceable(16) %this) #1 comdat align 2 {
entry:
  %this.addr = alloca ptr, align 8
  store ptr %this, ptr %this.addr, align 8, !tbaa !3
  %this1 = load ptr, ptr %this.addr, align 8
  %px = getelementptr inbounds nuw %"class.boost::shared_ptr.60", ptr %this1, i32 0, i32 0
  %0 = load ptr, ptr %px, align 8, !tbaa !73
  %cmp = icmp ne ptr %0, null
  %lnot = xor i1 %cmp, true
  %lnot2 = xor i1 %lnot, true
  %conv = zext i1 %lnot2 to i64
  %expval = call i64 @llvm.expect.i64(i64 %conv, i64 1)
  %tobool = icmp ne i64 %expval, 0
  br i1 %tobool, label %cond.true, label %cond.false

cond.true:                                        ; preds = %entry
  br label %cond.end

cond.false:                                       ; preds = %entry
  call void @_ZN5boost16assertion_failedEPKcS1_S1_l(ptr noundef @.str.9, ptr noundef @__PRETTY_FUNCTION__._ZNK5boost10shared_ptrIN8QuantLib19StochasticProcess1DEEptEv, ptr noundef @.str.10, i64 noundef 784)
  br label %cond.end

cond.end:                                         ; preds = %cond.false, %cond.true
  %px3 = getelementptr inbounds nuw %"class.boost::shared_ptr.60", ptr %this1, i32 0, i32 0
  %1 = load ptr, ptr %px3, align 8, !tbaa !73
  ret ptr %1
}

; Function Attrs: mustprogress nounwind uwtable
define linkonce_odr noundef nonnull align 8 dereferenceable(16) ptr @_ZN8QuantLib14OneFactorModel17ShortRateDynamics7processEv(ptr noundef nonnull align 8 dereferenceable(24) %this) #3 comdat align 2 {
entry:
  %this.addr = alloca ptr, align 8
  store ptr %this, ptr %this.addr, align 8, !tbaa !3
  %this1 = load ptr, ptr %this.addr, align 8
  %process_ = getelementptr inbounds nuw %"class.QuantLib::OneFactorModel::ShortRateDynamics", ptr %this1, i32 0, i32 1
  ret ptr %process_
}

; Function Attrs: mustprogress uwtable
define linkonce_odr noundef ptr @_ZNK5boost10shared_ptrIN8QuantLib14OneFactorModel17ShortRateDynamicsEEptEv(ptr noundef nonnull align 8 dereferenceable(16) %this) #1 comdat align 2 {
entry:
  %this.addr = alloca ptr, align 8
  store ptr %this, ptr %this.addr, align 8, !tbaa !3
  %this1 = load ptr, ptr %this.addr, align 8
  %px = getelementptr inbounds nuw %"class.boost::shared_ptr.27", ptr %this1, i32 0, i32 0
  %0 = load ptr, ptr %px, align 8, !tbaa !47
  %cmp = icmp ne ptr %0, null
  %lnot = xor i1 %cmp, true
  %lnot2 = xor i1 %lnot, true
  %conv = zext i1 %lnot2 to i64
  %expval = call i64 @llvm.expect.i64(i64 %conv, i64 1)
  %tobool = icmp ne i64 %expval, 0
  br i1 %tobool, label %cond.true, label %cond.false

cond.true:                                        ; preds = %entry
  br label %cond.end

cond.false:                                       ; preds = %entry
  call void @_ZN5boost16assertion_failedEPKcS1_S1_l(ptr noundef @.str.9, ptr noundef @__PRETTY_FUNCTION__._ZNK5boost10shared_ptrIN8QuantLib14OneFactorModel17ShortRateDynamicsEEptEv, ptr noundef @.str.10, i64 noundef 784)
  br label %cond.end

cond.end:                                         ; preds = %cond.false, %cond.true
  %px3 = getelementptr inbounds nuw %"class.boost::shared_ptr.27", ptr %this1, i32 0, i32 0
  %1 = load ptr, ptr %px3, align 8, !tbaa !47
  ret ptr %1
}

; Function Attrs: mustprogress uwtable
define noundef double @_ZNK8QuantLib20OneFactorAffineModel8discountEd(ptr noundef nonnull align 8 dereferenceable(88) %this, double noundef %t) unnamed_addr #1 align 2 personality ptr @__gxx_personality_v0 {
entry:
  %this.addr = alloca ptr, align 8
  %t.addr = alloca double, align 8
  %x0 = alloca double, align 8
  %ref.tmp = alloca %"class.boost::shared_ptr.27", align 8
  %exn.slot = alloca ptr, align 8
  %ehselector.slot = alloca i32, align 4
  %r0 = alloca double, align 8
  %ref.tmp10 = alloca %"class.boost::shared_ptr.27", align 8
  store ptr %this, ptr %this.addr, align 8, !tbaa !3
  store double %t, ptr %t.addr, align 8, !tbaa !11
  %this1 = load ptr, ptr %this.addr, align 8
  call void @llvm.lifetime.start.p0(i64 8, ptr %x0) #15
  call void @llvm.lifetime.start.p0(i64 16, ptr %ref.tmp) #15
  %vtable = load ptr, ptr %this1, align 8, !tbaa !7
  %vfn = getelementptr inbounds ptr, ptr %vtable, i64 7
  %0 = load ptr, ptr %vfn, align 8
  call void %0(ptr dead_on_unwind writable sret(%"class.boost::shared_ptr.27") align 8 %ref.tmp, ptr noundef nonnull align 8 dereferenceable(76) %this1)
  %call = invoke noundef ptr @_ZNK5boost10shared_ptrIN8QuantLib14OneFactorModel17ShortRateDynamicsEEptEv(ptr noundef nonnull align 8 dereferenceable(16) %ref.tmp)
          to label %invoke.cont unwind label %lpad

invoke.cont:                                      ; preds = %entry
  %call3 = invoke noundef nonnull align 8 dereferenceable(16) ptr @_ZN8QuantLib14OneFactorModel17ShortRateDynamics7processEv(ptr noundef nonnull align 8 dereferenceable(24) %call)
          to label %invoke.cont2 unwind label %lpad

invoke.cont2:                                     ; preds = %invoke.cont
  %call5 = invoke noundef ptr @_ZNK5boost10shared_ptrIN8QuantLib19StochasticProcess1DEEptEv(ptr noundef nonnull align 8 dereferenceable(16) %call3)
          to label %invoke.cont4 unwind label %lpad

invoke.cont4:                                     ; preds = %invoke.cont2
  %vtable6 = load ptr, ptr %call5, align 8, !tbaa !7
  %vfn7 = getelementptr inbounds ptr, ptr %vtable6, i64 15
  %1 = load ptr, ptr %vfn7, align 8
  %call9 = invoke noundef double %1(ptr noundef nonnull align 8 dereferenceable(144) %call5)
          to label %invoke.cont8 unwind label %lpad

invoke.cont8:                                     ; preds = %invoke.cont4
  call void @_ZN5boost10shared_ptrIN8QuantLib14OneFactorModel17ShortRateDynamicsEED2Ev(ptr noundef nonnull align 8 dereferenceable(16) %ref.tmp) #15
  call void @llvm.lifetime.end.p0(i64 16, ptr %ref.tmp) #15
  store double %call9, ptr %x0, align 8, !tbaa !11
  call void @llvm.lifetime.start.p0(i64 8, ptr %r0) #15
  call void @llvm.lifetime.start.p0(i64 16, ptr %ref.tmp10) #15
  %vtable11 = load ptr, ptr %this1, align 8, !tbaa !7
  %vfn12 = getelementptr inbounds ptr, ptr %vtable11, i64 7
  %2 = load ptr, ptr %vfn12, align 8
  call void %2(ptr dead_on_unwind writable sret(%"class.boost::shared_ptr.27") align 8 %ref.tmp10, ptr noundef nonnull align 8 dereferenceable(76) %this1)
  %call15 = invoke noundef ptr @_ZNK5boost10shared_ptrIN8QuantLib14OneFactorModel17ShortRateDynamicsEEptEv(ptr noundef nonnull align 8 dereferenceable(16) %ref.tmp10)
          to label %invoke.cont14 unwind label %lpad13

invoke.cont14:                                    ; preds = %invoke.cont8
  %3 = load double, ptr %x0, align 8, !tbaa !11
  %vtable16 = load ptr, ptr %call15, align 8, !tbaa !7
  %vfn17 = getelementptr inbounds ptr, ptr %vtable16, i64 3
  %4 = load ptr, ptr %vfn17, align 8
  %call19 = invoke noundef double %4(ptr noundef nonnull align 8 dereferenceable(24) %call15, double noundef 0.000000e+00, double noundef %3)
          to label %invoke.cont18 unwind label %lpad13

invoke.cont18:                                    ; preds = %invoke.cont14
  call void @_ZN5boost10shared_ptrIN8QuantLib14OneFactorModel17ShortRateDynamicsEED2Ev(ptr noundef nonnull align 8 dereferenceable(16) %ref.tmp10) #15
  call void @llvm.lifetime.end.p0(i64 16, ptr %ref.tmp10) #15
  store double %call19, ptr %r0, align 8, !tbaa !11
  %5 = load double, ptr %t.addr, align 8, !tbaa !11
  %6 = load double, ptr %r0, align 8, !tbaa !11
  %call20 = call noundef double @_ZNK8QuantLib20OneFactorAffineModel12discountBondEddd(ptr noundef nonnull align 8 dereferenceable(88) %this1, double noundef 0.000000e+00, double noundef %5, double noundef %6)
  call void @llvm.lifetime.end.p0(i64 8, ptr %r0) #15
  call void @llvm.lifetime.end.p0(i64 8, ptr %x0) #15
  ret double %call20

lpad:                                             ; preds = %invoke.cont4, %invoke.cont2, %invoke.cont, %entry
  %7 = landingpad { ptr, i32 }
          cleanup
  %8 = extractvalue { ptr, i32 } %7, 0
  store ptr %8, ptr %exn.slot, align 8
  %9 = extractvalue { ptr, i32 } %7, 1
  store i32 %9, ptr %ehselector.slot, align 4
  call void @_ZN5boost10shared_ptrIN8QuantLib14OneFactorModel17ShortRateDynamicsEED2Ev(ptr noundef nonnull align 8 dereferenceable(16) %ref.tmp) #15
  call void @llvm.lifetime.end.p0(i64 16, ptr %ref.tmp) #15
  br label %ehcleanup

lpad13:                                           ; preds = %invoke.cont14, %invoke.cont8
  %10 = landingpad { ptr, i32 }
          cleanup
  %11 = extractvalue { ptr, i32 } %10, 0
  store ptr %11, ptr %exn.slot, align 8
  %12 = extractvalue { ptr, i32 } %10, 1
  store i32 %12, ptr %ehselector.slot, align 4
  call void @_ZN5boost10shared_ptrIN8QuantLib14OneFactorModel17ShortRateDynamicsEED2Ev(ptr noundef nonnull align 8 dereferenceable(16) %ref.tmp10) #15
  call void @llvm.lifetime.end.p0(i64 16, ptr %ref.tmp10) #15
  call void @llvm.lifetime.end.p0(i64 8, ptr %r0) #15
  br label %ehcleanup

ehcleanup:                                        ; preds = %lpad13, %lpad
  call void @llvm.lifetime.end.p0(i64 8, ptr %x0) #15
  br label %eh.resume

eh.resume:                                        ; preds = %ehcleanup
  %exn = load ptr, ptr %exn.slot, align 8
  %sel = load i32, ptr %ehselector.slot, align 4
  %lpad.val = insertvalue { ptr, i32 } poison, ptr %exn, 0
  %lpad.val21 = insertvalue { ptr, i32 } %lpad.val, i32 %sel, 1
  resume { ptr, i32 } %lpad.val21
}