; Function Attrs: mustprogress uwtable
define noundef double @_ZNK8QuantLib20OneFactorAffineModel8discountEd(ptr noundef nonnull align 8 dereferenceable(88) %this, double noundef %t) unnamed_addr #1 align 2 personality ptr @__gxx_personality_v0 {
entry:
  %ref.tmp = alloca %"class.boost::shared_ptr.27", align 8
  %ref.tmp10 = alloca %"class.boost::shared_ptr.27", align 8
  call void @llvm.lifetime.start.p0(i64 16, ptr nonnull %ref.tmp) #28
  %vtable = load ptr, ptr %this, align 8, !tbaa !14
  %vfn = getelementptr inbounds i8, ptr %vtable, i64 56
  %0 = load ptr, ptr %vfn, align 8
  call void %0(ptr dead_on_unwind nonnull writable sret(%"class.boost::shared_ptr.27") align 8 %ref.tmp, ptr noundef nonnull align 8 dereferenceable(76) %this)
  %1 = load ptr, ptr %ref.tmp, align 8, !tbaa !56
  %cmp.not.i = icmp eq ptr %1, null
  br i1 %cmp.not.i, label %cond.false.i, label %invoke.cont, !prof !41

cond.false.i:                                     ; preds = %entry
  invoke void @_ZN5boost16assertion_failedEPKcS1_S1_l(ptr noundef nonnull @.str.9, ptr noundef nonnull @__PRETTY_FUNCTION__._ZNK5boost10shared_ptrIN8QuantLib14OneFactorModel17ShortRateDynamicsEEptEv, ptr noundef nonnull @.str.10, i64 noundef 784)
          to label %.noexc unwind label %lpad

.noexc:                                           ; preds = %cond.false.i
  %.pre.i = load ptr, ptr %ref.tmp, align 8, !tbaa !56
  br label %invoke.cont

invoke.cont:                                      ; preds = %.noexc, %entry
  %2 = phi ptr [ %1, %entry ], [ %.pre.i, %.noexc ]
  %process_.i = getelementptr inbounds nuw i8, ptr %2, i64 8
  %3 = load ptr, ptr %process_.i, align 8, !tbaa !116
  %cmp.not.i2 = icmp eq ptr %3, null
  br i1 %cmp.not.i2, label %cond.false.i3, label %invoke.cont4, !prof !41

cond.false.i3:                                    ; preds = %invoke.cont
  invoke void @_ZN5boost16assertion_failedEPKcS1_S1_l(ptr noundef nonnull @.str.9, ptr noundef nonnull @__PRETTY_FUNCTION__._ZNK5boost10shared_ptrIN8QuantLib19StochasticProcess1DEEptEv, ptr noundef nonnull @.str.10, i64 noundef 784)
          to label %.noexc5 unwind label %lpad

.noexc5:                                          ; preds = %cond.false.i3
  %.pre.i4 = load ptr, ptr %process_.i, align 8, !tbaa !116
  br label %invoke.cont4

invoke.cont4:                                     ; preds = %.noexc5, %invoke.cont
  %4 = phi ptr [ %3, %invoke.cont ], [ %.pre.i4, %.noexc5 ]
  %vtable6 = load ptr, ptr %4, align 8, !tbaa !14
  %vfn7 = getelementptr inbounds i8, ptr %vtable6, i64 120
  %5 = load ptr, ptr %vfn7, align 8
  %call9 = invoke noundef double %5(ptr noundef nonnull align 8 dereferenceable(144) %4)
          to label %invoke.cont8 unwind label %lpad

invoke.cont8:                                     ; preds = %invoke.cont4
  %pn.i = getelementptr inbounds nuw i8, ptr %ref.tmp, i64 8
  %6 = load ptr, ptr %pn.i, align 8, !tbaa !16
  %cmp.not.i.i = icmp eq ptr %6, null
  br i1 %cmp.not.i.i, label %_ZN5boost10shared_ptrIN8QuantLib14OneFactorModel17ShortRateDynamicsEED2Ev.exit, label %if.then.i.i

if.then.i.i:                                      ; preds = %invoke.cont8
  %use_count_.i.i.i = getelementptr inbounds nuw i8, ptr %6, i64 8
  %7 = atomicrmw sub ptr %use_count_.i.i.i, i32 1 acq_rel, align 4
  %cmp.i.i.i = icmp eq i32 %7, 1
  br i1 %cmp.i.i.i, label %if.then.i.i.i, label %_ZN5boost10shared_ptrIN8QuantLib14OneFactorModel17ShortRateDynamicsEED2Ev.exit

if.then.i.i.i:                                    ; preds = %if.then.i.i
  %vtable.i.i.i = load ptr, ptr %6, align 8, !tbaa !14
  %vfn.i.i.i = getelementptr inbounds i8, ptr %vtable.i.i.i, i64 16
  %8 = load ptr, ptr %vfn.i.i.i, align 8
  invoke void %8(ptr noundef nonnull align 8 dereferenceable(16) %6)
          to label %.noexc.i.i unwind label %terminate.lpad.i.i

.noexc.i.i:                                       ; preds = %if.then.i.i.i
  %weak_count_.i.i.i.i = getelementptr inbounds nuw i8, ptr %6, i64 12
  %9 = atomicrmw sub ptr %weak_count_.i.i.i.i, i32 1 acq_rel, align 4
  %cmp.i.i.i.i = icmp eq i32 %9, 1
  br i1 %cmp.i.i.i.i, label %if.then.i.i.i.i, label %_ZN5boost10shared_ptrIN8QuantLib14OneFactorModel17ShortRateDynamicsEED2Ev.exit

if.then.i.i.i.i:                                  ; preds = %.noexc.i.i
  %vtable.i.i.i.i = load ptr, ptr %6, align 8, !tbaa !14
  %vfn.i.i.i.i = getelementptr inbounds i8, ptr %vtable.i.i.i.i, i64 24
  %10 = load ptr, ptr %vfn.i.i.i.i, align 8
  invoke void %10(ptr noundef nonnull align 8 dereferenceable(16) %6)
          to label %_ZN5boost10shared_ptrIN8QuantLib14OneFactorModel17ShortRateDynamicsEED2Ev.exit unwind label %terminate.lpad.i.i

terminate.lpad.i.i:                               ; preds = %if.then.i.i.i.i, %if.then.i.i.i
  %11 = landingpad { ptr, i32 }
          catch ptr null
  %12 = extractvalue { ptr, i32 } %11, 0
  call void @__clang_call_terminate(ptr %12) #29
  unreachable

_ZN5boost10shared_ptrIN8QuantLib14OneFactorModel17ShortRateDynamicsEED2Ev.exit: ; preds = %invoke.cont8, %if.then.i.i, %.noexc.i.i, %if.then.i.i.i.i
  call void @llvm.lifetime.end.p0(i64 16, ptr nonnull %ref.tmp) #28
  call void @llvm.lifetime.start.p0(i64 16, ptr nonnull %ref.tmp10) #28
  %vtable11 = load ptr, ptr %this, align 8, !tbaa !14
  %vfn12 = getelementptr inbounds i8, ptr %vtable11, i64 56
  %13 = load ptr, ptr %vfn12, align 8
  call void %13(ptr dead_on_unwind nonnull writable sret(%"class.boost::shared_ptr.27") align 8 %ref.tmp10, ptr noundef nonnull align 8 dereferenceable(76) %this)
  %14 = load ptr, ptr %ref.tmp10, align 8, !tbaa !56
  %cmp.not.i6 = icmp eq ptr %14, null
  br i1 %cmp.not.i6, label %cond.false.i7, label %invoke.cont14, !prof !41

cond.false.i7:                                    ; preds = %_ZN5boost10shared_ptrIN8QuantLib14OneFactorModel17ShortRateDynamicsEED2Ev.exit
  invoke void @_ZN5boost16assertion_failedEPKcS1_S1_l(ptr noundef nonnull @.str.9, ptr noundef nonnull @__PRETTY_FUNCTION__._ZNK5boost10shared_ptrIN8QuantLib14OneFactorModel17ShortRateDynamicsEEptEv, ptr noundef nonnull @.str.10, i64 noundef 784)
          to label %.noexc9 unwind label %lpad13

.noexc9:                                          ; preds = %cond.false.i7
  %.pre.i8 = load ptr, ptr %ref.tmp10, align 8, !tbaa !56
  br label %invoke.cont14

invoke.cont14:                                    ; preds = %.noexc9, %_ZN5boost10shared_ptrIN8QuantLib14OneFactorModel17ShortRateDynamicsEED2Ev.exit
  %15 = phi ptr [ %14, %_ZN5boost10shared_ptrIN8QuantLib14OneFactorModel17ShortRateDynamicsEED2Ev.exit ], [ %.pre.i8, %.noexc9 ]
  %vtable16 = load ptr, ptr %15, align 8, !tbaa !14
  %vfn17 = getelementptr inbounds i8, ptr %vtable16, i64 24
  %16 = load ptr, ptr %vfn17, align 8
  %call19 = invoke noundef double %16(ptr noundef nonnull align 8 dereferenceable(24) %15, double noundef 0.000000e+00, double noundef %call9)
          to label %invoke.cont18 unwind label %lpad13

invoke.cont18:                                    ; preds = %invoke.cont14
  %pn.i11 = getelementptr inbounds nuw i8, ptr %ref.tmp10, i64 8
  %17 = load ptr, ptr %pn.i11, align 8, !tbaa !16
  %cmp.not.i.i12 = icmp eq ptr %17, null
  br i1 %cmp.not.i.i12, label %_ZN5boost10shared_ptrIN8QuantLib14OneFactorModel17ShortRateDynamicsEED2Ev.exit26, label %if.then.i.i13

if.then.i.i13:                                    ; preds = %invoke.cont18
  %use_count_.i.i.i14 = getelementptr inbounds nuw i8, ptr %17, i64 8
  %18 = atomicrmw sub ptr %use_count_.i.i.i14, i32 1 acq_rel, align 4
  %cmp.i.i.i15 = icmp eq i32 %18, 1
  br i1 %cmp.i.i.i15, label %if.then.i.i.i16, label %_ZN5boost10shared_ptrIN8QuantLib14OneFactorModel17ShortRateDynamicsEED2Ev.exit26

if.then.i.i.i16:                                  ; preds = %if.then.i.i13
  %vtable.i.i.i17 = load ptr, ptr %17, align 8, !tbaa !14
  %vfn.i.i.i18 = getelementptr inbounds i8, ptr %vtable.i.i.i17, i64 16
  %19 = load ptr, ptr %vfn.i.i.i18, align 8
  invoke void %19(ptr noundef nonnull align 8 dereferenceable(16) %17)
          to label %.noexc.i.i20 unwind label %terminate.lpad.i.i19

.noexc.i.i20:                                     ; preds = %if.then.i.i.i16
  %weak_count_.i.i.i.i21 = getelementptr inbounds nuw i8, ptr %17, i64 12
  %20 = atomicrmw sub ptr %weak_count_.i.i.i.i21, i32 1 acq_rel, align 4
  %cmp.i.i.i.i22 = icmp eq i32 %20, 1
  br i1 %cmp.i.i.i.i22, label %if.then.i.i.i.i23, label %_ZN5boost10shared_ptrIN8QuantLib14OneFactorModel17ShortRateDynamicsEED2Ev.exit26

if.then.i.i.i.i23:                                ; preds = %.noexc.i.i20
  %vtable.i.i.i.i24 = load ptr, ptr %17, align 8, !tbaa !14
  %vfn.i.i.i.i25 = getelementptr inbounds i8, ptr %vtable.i.i.i.i24, i64 24
  %21 = load ptr, ptr %vfn.i.i.i.i25, align 8
  invoke void %21(ptr noundef nonnull align 8 dereferenceable(16) %17)
          to label %_ZN5boost10shared_ptrIN8QuantLib14OneFactorModel17ShortRateDynamicsEED2Ev.exit26 unwind label %terminate.lpad.i.i19

terminate.lpad.i.i19:                             ; preds = %if.then.i.i.i.i23, %if.then.i.i.i16
  %22 = landingpad { ptr, i32 }
          catch ptr null
  %23 = extractvalue { ptr, i32 } %22, 0
  call void @__clang_call_terminate(ptr %23) #29
  unreachable

_ZN5boost10shared_ptrIN8QuantLib14OneFactorModel17ShortRateDynamicsEED2Ev.exit26: ; preds = %invoke.cont18, %if.then.i.i13, %.noexc.i.i20, %if.then.i.i.i.i23
  call void @llvm.lifetime.end.p0(i64 16, ptr nonnull %ref.tmp10) #28
  %vtable.i = load ptr, ptr %this, align 8, !tbaa !14
  %vfn.i = getelementptr inbounds i8, ptr %vtable.i, i64 80
  %24 = load ptr, ptr %vfn.i, align 8
  %call.i = call noundef double %24(ptr noundef nonnull align 8 dereferenceable(88) %this, double noundef 0.000000e+00, double noundef %t)
  %vtable2.i = load ptr, ptr %this, align 8, !tbaa !14
  %vfn3.i = getelementptr inbounds i8, ptr %vtable2.i, i64 88
  %25 = load ptr, ptr %vfn3.i, align 8
  %call4.i = call noundef double %25(ptr noundef nonnull align 8 dereferenceable(88) %this, double noundef 0.000000e+00, double noundef %t)
  %fneg.i = fneg double %call4.i
  %mul.i = fmul double %call19, %fneg.i
  %call5.i = call double @exp(double noundef %mul.i) #28, !tbaa !118
  %mul6.i = fmul double %call.i, %call5.i
  ret double %mul6.i

lpad:                                             ; preds = %cond.false.i3, %cond.false.i, %invoke.cont4
  %26 = landingpad { ptr, i32 }
          cleanup
  call void @_ZN5boost10shared_ptrIN8QuantLib14OneFactorModel17ShortRateDynamicsEED2Ev(ptr noundef nonnull align 8 dereferenceable(16) %ref.tmp) #28
  call void @llvm.lifetime.end.p0(i64 16, ptr nonnull %ref.tmp) #28
  br label %ehcleanup

lpad13:                                           ; preds = %cond.false.i7, %invoke.cont14
  %27 = landingpad { ptr, i32 }
          cleanup
  call void @_ZN5boost10shared_ptrIN8QuantLib14OneFactorModel17ShortRateDynamicsEED2Ev(ptr noundef nonnull align 8 dereferenceable(16) %ref.tmp10) #28
  call void @llvm.lifetime.end.p0(i64 16, ptr nonnull %ref.tmp10) #28
  br label %ehcleanup

ehcleanup:                                        ; preds = %lpad13, %lpad
  %.pn = phi { ptr, i32 } [ %27, %lpad13 ], [ %26, %lpad ]
  resume { ptr, i32 } %.pn
}